target datalayout = "e-m:e-p270:32:32-p271:32:32-p272:64:64-i64:64-i128:128-f80:128-n8:16:32:64-S128"
target triple = "x86_64-unknown-linux-gnu"

%struct.Hmac = type { %union.wc_HmacHash, [36 x i32], [36 x i32], [16 x i32], ptr, i8, i8 }
%union.wc_HmacHash = type { %struct.wc_Sha3 }
%struct.wc_Sha3 = type { [25 x i64], [200 x i8], i8, ptr }

; Function Attrs: nounwind uwtable
define internal void @ForceZero(ptr noundef %mem, i32 noundef %len) #0 {
entry:
  %mem.addr = alloca ptr, align 8
  %len.addr = alloca i32, align 4
  %z = alloca ptr, align 8
  %w = alloca ptr, align 8
  %l = alloca i32, align 4
  store ptr %mem, ptr %mem.addr, align 8
  store i32 %len, ptr %len.addr, align 4
  %0 = load ptr, ptr %mem.addr, align 8
  store ptr %0, ptr %z, align 8
  %1 = load ptr, ptr %z, align 8
  %2 = ptrtoint ptr %1 to i64
  %and = and i64 %2, 7
  %sub = sub i64 8, %and
  %and1 = and i64 %sub, 7
  %conv = trunc i64 %and1 to i32
  store i32 %conv, ptr %l, align 4
  %3 = load i32, ptr %len.addr, align 4
  %4 = load i32, ptr %l, align 4
  %cmp = icmp ult i32 %3, %4
  br i1 %cmp, label %if.then, label %if.end

if.then:                                          ; preds = %entry
  %5 = load i32, ptr %len.addr, align 4
  store i32 %5, ptr %l, align 4
  br label %if.end

if.end:                                           ; preds = %if.then, %entry
  %6 = load i32, ptr %l, align 4
  %7 = load i32, ptr %len.addr, align 4
  %sub3 = sub i32 %7, %6
  store i32 %sub3, ptr %len.addr, align 4
  br label %while.cond

while.cond:                                       ; preds = %while.body, %if.end
  %8 = load i32, ptr %l, align 4
  %dec = add i32 %8, -1
  store i32 %dec, ptr %l, align 4
  %tobool = icmp ne i32 %8, 0
  br i1 %tobool, label %while.body, label %while.end

while.body:                                       ; preds = %while.cond
  %9 = load ptr, ptr %z, align 8
  %incdec.ptr = getelementptr inbounds i8, ptr %9, i32 1
  store ptr %incdec.ptr, ptr %z, align 8
  store volatile i8 0, ptr %9, align 1
  br label %while.cond, !llvm.loop !6

while.end:                                        ; preds = %while.cond
  %10 = load ptr, ptr %z, align 8
  store ptr %10, ptr %w, align 8
  br label %for.cond

for.cond:                                         ; preds = %for.inc, %while.end
  %11 = load i32, ptr %len.addr, align 4
  %conv4 = zext i32 %11 to i64
  %cmp5 = icmp uge i64 %conv4, 8
  br i1 %cmp5, label %for.body, label %for.end

for.body:                                         ; preds = %for.cond
  %12 = load ptr, ptr %w, align 8
  %incdec.ptr7 = getelementptr inbounds i64, ptr %12, i32 1
  store ptr %incdec.ptr7, ptr %w, align 8
  store volatile i64 0, ptr %12, align 8
  br label %for.inc

for.inc:                                          ; preds = %for.body
  %13 = load i32, ptr %len.addr, align 4
  %sub8 = sub i32 %13, 8
  store i32 %sub8, ptr %len.addr, align 4
  br label %for.cond, !llvm.loop !7

for.end:                                          ; preds = %for.cond
  %14 = load ptr, ptr %w, align 8
  store ptr %14, ptr %z, align 8
  br label %while.cond9

while.cond9:                                      ; preds = %while.body12, %for.end
  %15 = load i32, ptr %len.addr, align 4
  %dec10 = add i32 %15, -1
  store i32 %dec10, ptr %len.addr, align 4
  %tobool11 = icmp ne i32 %15, 0
  br i1 %tobool11, label %while.body12, label %while.end14

while.body12:                                     ; preds = %while.cond9
  %16 = load ptr, ptr %z, align 8
  %incdec.ptr13 = getelementptr inbounds i8, ptr %16, i32 1
  store ptr %incdec.ptr13, ptr %z, align 8
  store volatile i8 0, ptr %16, align 1
  br label %while.cond9, !llvm.loop !8

while.end14:                                      ; preds = %while.cond9
  ret void
}

; Function Attrs: nounwind uwtable
define void @wc_HmacFree(ptr noundef %hmac) #0 {
entry:
  %hmac.addr = alloca ptr, align 8
  store ptr %hmac, ptr %hmac.addr, align 8
  %0 = load ptr, ptr %hmac.addr, align 8
  %cmp = icmp eq ptr %0, null
  br i1 %cmp, label %if.then, label %if.end

if.then:                                          ; preds = %entry
  br label %return

if.end:                                           ; preds = %entry
  %1 = load ptr, ptr %hmac.addr, align 8
  %macType = getelementptr inbounds %struct.Hmac, ptr %1, i32 0, i32 5
  %2 = load i8, ptr %macType, align 8
  %conv = zext i8 %2 to i32
  switch i32 %conv, label %sw.default [
    i32 3, label %sw.bb
    i32 4, label %sw.bb1
    i32 5, label %sw.bb3
    i32 6, label %sw.bb5
    i32 7, label %sw.bb7
    i32 8, label %sw.bb9
    i32 10, label %sw.bb11
    i32 11, label %sw.bb13
    i32 12, label %sw.bb15
    i32 13, label %sw.bb17
  ]

sw.bb:                                            ; preds = %if.end
  %3 = load ptr, ptr %hmac.addr, align 8
  %hash = getelementptr inbounds %struct.Hmac, ptr %3, i32 0, i32 0
  call void @wc_Md5Free(ptr noundef %hash)
  br label %sw.epilog

sw.bb1:                                           ; preds = %if.end
  %4 = load ptr, ptr %hmac.addr, align 8
  %hash2 = getelementptr inbounds %struct.Hmac, ptr %4, i32 0, i32 0
  call void @wc_ShaFree(ptr noundef %hash2)
  br label %sw.epilog

sw.bb3:                                           ; preds = %if.end
  %5 = load ptr, ptr %hmac.addr, align 8
  %hash4 = getelementptr inbounds %struct.Hmac, ptr %5, i32 0, i32 0
  call void @wc_Sha224Free(ptr noundef %hash4)
  br label %sw.epilog

sw.bb5:                                           ; preds = %if.end
  %6 = load ptr, ptr %hmac.addr, align 8
  %hash6 = getelementptr inbounds %struct.Hmac, ptr %6, i32 0, i32 0
  call void @wc_Sha256Free(ptr noundef %hash6)
  br label %sw.epilog

sw.bb7:                                           ; preds = %if.end
  %7 = load ptr, ptr %hmac.addr, align 8
  %hash8 = getelementptr inbounds %struct.Hmac, ptr %7, i32 0, i32 0
  call void @wc_Sha384Free(ptr noundef %hash8)
  br label %sw.epilog

sw.bb9:                                           ; preds = %if.end
  %8 = load ptr, ptr %hmac.addr, align 8
  %hash10 = getelementptr inbounds %struct.Hmac, ptr %8, i32 0, i32 0
  call void @wc_Sha512Free(ptr noundef %hash10)
  br label %sw.epilog

sw.bb11:                                          ; preds = %if.end
  %9 = load ptr, ptr %hmac.addr, align 8
  %hash12 = getelementptr inbounds %struct.Hmac, ptr %9, i32 0, i32 0
  call void @wc_Sha3_224_Free(ptr noundef %hash12)
  br label %sw.epilog

sw.bb13:                                          ; preds = %if.end
  %10 = load ptr, ptr %hmac.addr, align 8
  %hash14 = getelementptr inbounds %struct.Hmac, ptr %10, i32 0, i32 0
  call void @wc_Sha3_256_Free(ptr noundef %hash14)
  br label %sw.epilog

sw.bb15:                                          ; preds = %if.end
  %11 = load ptr, ptr %hmac.addr, align 8
  %hash16 = getelementptr inbounds %struct.Hmac, ptr %11, i32 0, i32 0
  call void @wc_Sha3_384_Free(ptr noundef %hash16)
  br label %sw.epilog

sw.bb17:                                          ; preds = %if.end
  %12 = load ptr, ptr %hmac.addr, align 8
  %hash18 = getelementptr inbounds %struct.Hmac, ptr %12, i32 0, i32 0
  call void @wc_Sha3_512_Free(ptr noundef %hash18)
  br label %sw.epilog

sw.default:                                       ; preds = %if.end
  br label %sw.epilog

sw.epilog:                                        ; preds = %sw.default, %sw.bb17, %sw.bb15, %sw.bb13, %sw.bb11, %sw.bb9, %sw.bb7, %sw.bb5, %sw.bb3, %sw.bb1, %sw.bb
  %13 = load ptr, ptr %hmac.addr, align 8
  call void @ForceZero(ptr noundef %13, i32 noundef 784)
  br label %return

return:                                           ; preds = %sw.epilog, %if.then
  ret void
}