; Function Attrs: nounwind uwtable
define void @wc_HmacFree(ptr noundef %hmac) local_unnamed_addr #1 {
entry:
  %cmp = icmp eq ptr %hmac, null
  br i1 %cmp, label %return, label %if.end

if.end:                                           ; preds = %entry
  %macType = getelementptr inbounds nuw i8, ptr %hmac, i64 776
  %0 = load i8, ptr %macType, align 8
  switch i8 %0, label %sw.epilog [
    i8 3, label %sw.bb
    i8 4, label %sw.bb1
    i8 5, label %sw.bb3
    i8 6, label %sw.bb5
    i8 7, label %sw.bb7
    i8 8, label %sw.bb9
    i8 10, label %sw.bb11
    i8 11, label %sw.bb13
    i8 12, label %sw.bb15
    i8 13, label %sw.bb17
  ]

sw.bb:                                            ; preds = %if.end
  tail call void @wc_Md5Free(ptr noundef nonnull %hmac) #8
  br label %sw.epilog

sw.bb1:                                           ; preds = %if.end
  tail call void @wc_ShaFree(ptr noundef nonnull %hmac) #8
  br label %sw.epilog

sw.bb3:                                           ; preds = %if.end
  tail call void @wc_Sha224Free(ptr noundef nonnull %hmac) #8
  br label %sw.epilog

sw.bb5:                                           ; preds = %if.end
  tail call void @wc_Sha256Free(ptr noundef nonnull %hmac) #8
  br label %sw.epilog

sw.bb7:                                           ; preds = %if.end
  tail call void @wc_Sha384Free(ptr noundef nonnull %hmac) #8
  br label %sw.epilog

sw.bb9:                                           ; preds = %if.end
  tail call void @wc_Sha512Free(ptr noundef nonnull %hmac) #8
  br label %sw.epilog

sw.bb11:                                          ; preds = %if.end
  tail call void @wc_Sha3_224_Free(ptr noundef nonnull %hmac) #8
  br label %sw.epilog

sw.bb13:                                          ; preds = %if.end
  tail call void @wc_Sha3_256_Free(ptr noundef nonnull %hmac) #8
  br label %sw.epilog

sw.bb15:                                          ; preds = %if.end
  tail call void @wc_Sha3_384_Free(ptr noundef nonnull %hmac) #8
  br label %sw.epilog

sw.bb17:                                          ; preds = %if.end
  tail call void @wc_Sha3_512_Free(ptr noundef nonnull %hmac) #8
  br label %sw.epilog

sw.epilog:                                        ; preds = %if.end, %sw.bb17, %sw.bb15, %sw.bb13, %sw.bb11, %sw.bb9, %sw.bb7, %sw.bb5, %sw.bb3, %sw.bb1, %sw.bb
  %1 = ptrtoint ptr %hmac to i64
  %2 = trunc i64 %1 to i32
  %3 = sub i32 0, %2
  %conv.i = and i32 %3, 7
  %sub3.i = sub nuw nsw i32 784, %conv.i
  %tobool.not12.i = icmp eq i32 %conv.i, 0
  br i1 %tobool.not12.i, label %for.body.i.preheader, label %while.body.i

for.body.i.preheader:                             ; preds = %while.body.i, %sw.epilog
  %w.017.i.ph = phi ptr [ %hmac, %sw.epilog ], [ %incdec.ptr.i, %while.body.i ]
  br label %for.body.i

while.body.i:                                     ; preds = %sw.epilog, %while.body.i
  %l.114.i = phi i32 [ %dec.i, %while.body.i ], [ %conv.i, %sw.epilog ]
  %z.013.i = phi ptr [ %incdec.ptr.i, %while.body.i ], [ %hmac, %sw.epilog ]
  %dec.i = add nsw i32 %l.114.i, -1
  %incdec.ptr.i = getelementptr inbounds nuw i8, ptr %z.013.i, i64 1
  store volatile i8 0, ptr %z.013.i, align 1
  %tobool.not.i = icmp eq i32 %dec.i, 0
  br i1 %tobool.not.i, label %for.body.i.preheader, label %while.body.i, !llvm.loop !6

while.cond9.preheader.i:                          ; preds = %for.body.i
  %tobool11.not20.i = icmp eq i32 %sub8.i, 0
  br i1 %tobool11.not20.i, label %return, label %while.body12.i

for.body.i:                                       ; preds = %for.body.i.preheader, %for.body.i
  %w.017.i = phi ptr [ %incdec.ptr7.i, %for.body.i ], [ %w.017.i.ph, %for.body.i.preheader ]
  %len.addr.016.i = phi i32 [ %sub8.i, %for.body.i ], [ %sub3.i, %for.body.i.preheader ]
  %incdec.ptr7.i = getelementptr inbounds nuw i8, ptr %w.017.i, i64 8
  store volatile i64 0, ptr %w.017.i, align 8
  %sub8.i = add nsw i32 %len.addr.016.i, -8
  %cmp5.i = icmp ugt i32 %sub8.i, 7
  br i1 %cmp5.i, label %for.body.i, label %while.cond9.preheader.i, !llvm.loop !7

while.body12.i:                                   ; preds = %while.cond9.preheader.i, %while.body12.i
  %z.122.i = phi ptr [ %incdec.ptr13.i, %while.body12.i ], [ %incdec.ptr7.i, %while.cond9.preheader.i ]
  %len.addr.121.i = phi i32 [ %dec10.i, %while.body12.i ], [ %sub8.i, %while.cond9.preheader.i ]
  %dec10.i = add i32 %len.addr.121.i, -1
  %incdec.ptr13.i = getelementptr inbounds nuw i8, ptr %z.122.i, i64 1
  store volatile i8 0, ptr %z.122.i, align 1
  %tobool11.not.i = icmp eq i32 %dec10.i, 0
  br i1 %tobool11.not.i, label %return, label %while.body12.i, !llvm.loop !8

return:                                           ; preds = %while.body12.i, %while.cond9.preheader.i, %entry
  ret void
}